target datalayout = "e-m:e-p270:32:32-p271:32:32-p272:64:64-i64:64-i128:128-f80:128-n8:16:32:64-S128"
target triple = "x86_64-unknown-linux-gnu"

; Function Attrs: mustprogress nounwind uwtable
define noundef i64 @_ZN7rocksdb18WriteBatchInternal16AppendedByteSizeEmm(i64 noundef %leftByteSize, i64 noundef %rightByteSize) #1 align 2 {
entry:
  %retval = alloca i64, align 8
  %leftByteSize.addr = alloca i64, align 8
  %rightByteSize.addr = alloca i64, align 8
  store i64 %leftByteSize, ptr %leftByteSize.addr, align 8
  store i64 %rightByteSize, ptr %rightByteSize.addr, align 8
  %0 = load i64, ptr %leftByteSize.addr, align 8
  %cmp = icmp eq i64 %0, 0
  br i1 %cmp, label %if.then, label %lor.lhs.false

lor.lhs.false:                                    ; preds = %entry
  %1 = load i64, ptr %rightByteSize.addr, align 8
  %cmp1 = icmp eq i64 %1, 0
  br i1 %cmp1, label %if.then, label %if.else

if.then:                                          ; preds = %lor.lhs.false, %entry
  %2 = load i64, ptr %leftByteSize.addr, align 8
  %3 = load i64, ptr %rightByteSize.addr, align 8
  %add = add i64 %2, %3
  store i64 %add, ptr %retval, align 8
  br label %return

if.else:                                          ; preds = %lor.lhs.false
  %4 = load i64, ptr %leftByteSize.addr, align 8
  %5 = load i64, ptr %rightByteSize.addr, align 8
  %add2 = add i64 %4, %5
  %sub = sub i64 %add2, 12
  store i64 %sub, ptr %retval, align 8
  br label %return

return:                                           ; preds = %if.else, %if.then
  %6 = load i64, ptr %retval, align 8
  ret i64 %6
}