; Function Attrs: mustprogress nofree norecurse nosync nounwind willreturn memory(none) uwtable
define noundef i64 @_ZN7rocksdb18WriteBatchInternal16AppendedByteSizeEmm(i64 noundef %leftByteSize, i64 noundef %rightByteSize) local_unnamed_addr #9 align 2 {
entry:
  %cmp = icmp eq i64 %leftByteSize, 0
  %cmp1 = icmp eq i64 %rightByteSize, 0
  %or.cond = or i1 %cmp, %cmp1
  %add = add i64 %rightByteSize, %leftByteSize
  %sub = add i64 %add, -12
  %retval.0 = select i1 %or.cond, i64 %add, i64 %sub
  ret i64 %retval.0
}